; Function Attrs: nounwind uwtable
define noalias nonnull ptr @l_Lake_EResult_map(ptr noundef readnone captures(none) %0, ptr noundef readnone captures(none) %1, ptr noundef readnone captures(none) %2, ptr noundef readnone captures(none) %3) local_unnamed_addr #0 {
  tail call void @lean_inc_heartbeat() #4
  %5 = tail call noalias ptr @mi_malloc_small(i64 noundef 24) #4
  %6 = icmp eq ptr %5, null
  br i1 %6, label %7, label %lean_alloc_closure.exit

7:                                                ; preds = %4
  tail call void @lean_internal_panic_out_of_memory() #5
  unreachable

lean_alloc_closure.exit:                          ; preds = %4
  %8 = getelementptr inbounds nuw i8, ptr %5, i64 4
  store i32 1, ptr %5, align 4, !tbaa !4
  store i32 -184549352, ptr %8, align 4
  %9 = getelementptr inbounds nuw i8, ptr %5, i64 8
  store ptr @l_Lake_EResult_map___rarg, ptr %9, align 8, !tbaa !9
  %10 = getelementptr inbounds nuw i8, ptr %5, i64 16
  store i16 2, ptr %10, align 8, !tbaa !11
  %11 = getelementptr inbounds nuw i8, ptr %5, i64 18
  store i16 0, ptr %11, align 2, !tbaa !11
  ret ptr %5
}